target datalayout = "e-m:e-p270:32:32-p271:32:32-p272:64:64-i64:64-i128:128-f80:128-n8:16:32:64-S128"
target triple = "x86_64-unknown-linux-gnu"

%"struct.node::AssertionInfo" = type { ptr, ptr, ptr }

@_ZZN4node6crypto7NodeBIO7FromBIOEP6bio_stE4args = internal constant %"struct.node::AssertionInfo" { ptr @.str.35, ptr @.str.36, ptr @.str.37 }, align 8

; Function Attrs: mustprogress nounwind uwtable
define dso_local noundef ptr @_ZN4node6crypto7NodeBIO7FromBIOEP6bio_st(ptr noundef %bio) #4 align 2 {
entry:
  %bio.addr = alloca ptr, align 8
  store ptr %bio, ptr %bio.addr, align 8
  br label %do.body

do.body:                                          ; preds = %entry
  %0 = load ptr, ptr %bio.addr, align 8
  %call = call ptr @BIO_get_data(ptr noundef %0)
  %cmp = icmp ne ptr %call, null
  %lnot = xor i1 %cmp, true
  %lnot1 = xor i1 %lnot, true
  %lnot2 = xor i1 %lnot1, true
  br i1 %lnot2, label %if.then, label %if.end

if.then:                                          ; preds = %do.body
  br label %do.body3

do.body3:                                         ; preds = %if.then
  call void @_ZN4node6AssertERKNS_13AssertionInfoE(ptr noundef nonnull align 8 dereferenceable(24) @_ZZN4node6crypto7NodeBIO7FromBIOEP6bio_stE4args)
  call void @abort() #12
  unreachable

do.end:                                           ; No predecessors!
  br label %if.end

if.end:                                           ; preds = %do.end, %do.body
  br label %do.end4

do.end4:                                          ; preds = %if.end
  %1 = load ptr, ptr %bio.addr, align 8
  %call5 = call ptr @BIO_get_data(ptr noundef %1)
  ret ptr %call5
}

; Function Attrs: mustprogress nounwind uwtable
define dso_local noundef i32 @_ZN4node6crypto7NodeBIO4FreeEP6bio_st(ptr noundef %bio) #4 align 2 {
entry:
  %retval = alloca i32, align 4
  %bio.addr = alloca ptr, align 8
  store ptr %bio, ptr %bio.addr, align 8
  %0 = load ptr, ptr %bio.addr, align 8
  %cmp = icmp eq ptr %0, null
  br i1 %cmp, label %if.then, label %if.end

if.then:                                          ; preds = %entry
  store i32 0, ptr %retval, align 4
  br label %return

if.end:                                           ; preds = %entry
  %1 = load ptr, ptr %bio.addr, align 8
  %call = call i32 @BIO_get_shutdown(ptr noundef %1)
  %tobool = icmp ne i32 %call, 0
  br i1 %tobool, label %if.then1, label %if.end9

if.then1:                                         ; preds = %if.end
  %2 = load ptr, ptr %bio.addr, align 8
  %call2 = call i32 @BIO_get_init(ptr noundef %2)
  %tobool3 = icmp ne i32 %call2, 0
  br i1 %tobool3, label %land.lhs.true, label %if.end8

land.lhs.true:                                    ; preds = %if.then1
  %3 = load ptr, ptr %bio.addr, align 8
  %call4 = call ptr @BIO_get_data(ptr noundef %3)
  %cmp5 = icmp ne ptr %call4, null
  br i1 %cmp5, label %if.then6, label %if.end8

if.then6:                                         ; preds = %land.lhs.true
  %4 = load ptr, ptr %bio.addr, align 8
  %call7 = call noundef ptr @_ZN4node6crypto7NodeBIO7FromBIOEP6bio_st(ptr noundef %4)
  %isnull = icmp eq ptr %call7, null
  br i1 %isnull, label %delete.end, label %delete.notnull

delete.notnull:                                   ; preds = %if.then6
  %vtable = load ptr, ptr %call7, align 8
  %vfn = getelementptr inbounds ptr, ptr %vtable, i64 1
  %5 = load ptr, ptr %vfn, align 8
  call void %5(ptr noundef nonnull align 8 dereferenceable(64) %call7) #3
  br label %delete.end

delete.end:                                       ; preds = %delete.notnull, %if.then6
  %6 = load ptr, ptr %bio.addr, align 8
  call void @BIO_set_data(ptr noundef %6, ptr noundef null)
  br label %if.end8

if.end8:                                          ; preds = %delete.end, %land.lhs.true, %if.then1
  br label %if.end9

if.end9:                                          ; preds = %if.end8, %if.end
  store i32 1, ptr %retval, align 4
  br label %return

return:                                           ; preds = %if.end9, %if.then
  %7 = load i32, ptr %retval, align 4
  ret i32 %7
}