; Function Attrs: mustprogress nounwind uwtable
define dso_local noundef i32 @_ZN4node6crypto7NodeBIO4FreeEP6bio_st(ptr noundef %bio) #3 align 2 {
entry:
  %cmp = icmp eq ptr %bio, null
  br i1 %cmp, label %return, label %if.end

if.end:                                           ; preds = %entry
  %call = tail call i32 @BIO_get_shutdown(ptr noundef nonnull %bio) #16
  %tobool.not = icmp eq i32 %call, 0
  br i1 %tobool.not, label %return, label %if.then1

if.then1:                                         ; preds = %if.end
  %call2 = tail call i32 @BIO_get_init(ptr noundef nonnull %bio) #16
  %tobool3.not = icmp eq i32 %call2, 0
  br i1 %tobool3.not, label %return, label %land.lhs.true

land.lhs.true:                                    ; preds = %if.then1
  %call4 = tail call ptr @BIO_get_data(ptr noundef nonnull %bio) #16
  %cmp5.not = icmp eq ptr %call4, null
  br i1 %cmp5.not, label %return, label %if.then6

if.then6:                                         ; preds = %land.lhs.true
  %call.i = tail call ptr @BIO_get_data(ptr noundef nonnull %bio) #16
  %cmp.not.i = icmp eq ptr %call.i, null
  br i1 %cmp.not.i, label %do.body3.i, label %_ZN4node6crypto7NodeBIO7FromBIOEP6bio_st.exit

do.body3.i:                                       ; preds = %if.then6
  tail call void @_ZN4node6AssertERKNS_13AssertionInfoE(ptr noundef nonnull align 8 dereferenceable(24) @_ZZN4node6crypto7NodeBIO7FromBIOEP6bio_stE4args) #16
  tail call void @abort() #17
  unreachable

_ZN4node6crypto7NodeBIO7FromBIOEP6bio_st.exit:    ; preds = %if.then6
  %call5.i = tail call noundef ptr @BIO_get_data(ptr noundef nonnull %bio) #16
  %isnull = icmp eq ptr %call5.i, null
  br i1 %isnull, label %delete.end, label %delete.notnull

delete.notnull:                                   ; preds = %_ZN4node6crypto7NodeBIO7FromBIOEP6bio_st.exit
  %vtable = load ptr, ptr %call5.i, align 8
  %vfn = getelementptr inbounds i8, ptr %vtable, i64 8
  %0 = load ptr, ptr %vfn, align 8
  tail call void %0(ptr noundef nonnull align 8 dereferenceable(64) %call5.i) #16
  br label %delete.end

delete.end:                                       ; preds = %delete.notnull, %_ZN4node6crypto7NodeBIO7FromBIOEP6bio_st.exit
  tail call void @BIO_set_data(ptr noundef nonnull %bio, ptr noundef null) #16
  br label %return

return:                                           ; preds = %if.end, %delete.end, %land.lhs.true, %if.then1, %entry
  %retval.0 = phi i32 [ 0, %entry ], [ 1, %if.then1 ], [ 1, %land.lhs.true ], [ 1, %delete.end ], [ 1, %if.end ]
  ret i32 %retval.0
}